target datalayout = "e-m:e-p270:32:32-p271:32:32-p272:64:64-i64:64-i128:128-f80:128-n8:16:32:64-S128"
target triple = "x86_64-pc-linux-gnu"

%struct.png_info_def = type { i32, i32, i32, i64, ptr, i16, i16, i8, i8, i8, i8, i8, i8, i8, i8, [8 x i8], %struct.png_colorspace, ptr, ptr, i32, i32, i32, ptr, %struct.png_time_struct, %struct.png_color_8_struct, ptr, %struct.png_color_16_struct, %struct.png_color_16_struct, i32, i32, i8, i32, i32, i8, i32, ptr, ptr, ptr, ptr, i32, i32, ptr, ptr, i8, i8, i32, ptr, i32, ptr, i32, i8, ptr, ptr, ptr }
%struct.png_colorspace = type { i32, %struct.png_xy, %struct.png_XYZ, i16, i16 }
%struct.png_xy = type { i32, i32, i32, i32, i32, i32, i32, i32 }
%struct.png_XYZ = type { i32, i32, i32, i32, i32, i32, i32, i32, i32 }
%struct.png_time_struct = type { i16, i8, i8, i8, i8, i8 }
%struct.png_color_8_struct = type { i8, i8, i8, i8, i8 }
%struct.png_color_16_struct = type { i8, i16, i16, i16, i16 }

; Function Attrs: nounwind uwtable
define void @png_set_oFFs(ptr noalias noundef %0, ptr noalias noundef %1, i32 noundef %2, i32 noundef %3, i32 noundef %4) #0 {
  %6 = alloca ptr, align 8
  %7 = alloca ptr, align 8
  %8 = alloca i32, align 4
  %9 = alloca i32, align 4
  %10 = alloca i32, align 4
  store ptr %0, ptr %6, align 8
  store ptr %1, ptr %7, align 8
  store i32 %2, ptr %8, align 4
  store i32 %3, ptr %9, align 4
  store i32 %4, ptr %10, align 4
  %11 = load ptr, ptr %6, align 8
  %12 = icmp eq ptr %11, null
  br i1 %12, label %16, label %13

13:                                               ; preds = %5
  %14 = load ptr, ptr %7, align 8
  %15 = icmp eq ptr %14, null
  br i1 %15, label %16, label %17

16:                                               ; preds = %13, %5
  br label %32

17:                                               ; preds = %13
  %18 = load i32, ptr %8, align 4
  %19 = load ptr, ptr %7, align 8
  %20 = getelementptr inbounds %struct.png_info_def, ptr %19, i32 0, i32 28
  store i32 %18, ptr %20, align 4
  %21 = load i32, ptr %9, align 4
  %22 = load ptr, ptr %7, align 8
  %23 = getelementptr inbounds %struct.png_info_def, ptr %22, i32 0, i32 29
  store i32 %21, ptr %23, align 8
  %24 = load i32, ptr %10, align 4
  %25 = trunc i32 %24 to i8
  %26 = load ptr, ptr %7, align 8
  %27 = getelementptr inbounds %struct.png_info_def, ptr %26, i32 0, i32 30
  store i8 %25, ptr %27, align 4
  %28 = load ptr, ptr %7, align 8
  %29 = getelementptr inbounds %struct.png_info_def, ptr %28, i32 0, i32 2
  %30 = load i32, ptr %29, align 8
  %31 = or i32 %30, 256
  store i32 %31, ptr %29, align 8
  br label %32

32:                                               ; preds = %17, %16
  ret void
}