; Function Attrs: mustprogress nofree norecurse nosync nounwind willreturn memory(argmem: readwrite) uwtable
define void @png_set_oFFs(ptr noalias noundef readnone %0, ptr noalias noundef %1, i32 noundef %2, i32 noundef %3, i32 noundef %4) local_unnamed_addr #0 {
  %6 = icmp eq ptr %0, null
  %7 = icmp eq ptr %1, null
  %or.cond = or i1 %6, %7
  br i1 %or.cond, label %16, label %8

8:                                                ; preds = %5
  %9 = getelementptr inbounds i8, ptr %1, i64 212
  store i32 %2, ptr %9, align 4
  %10 = getelementptr inbounds i8, ptr %1, i64 216
  store i32 %3, ptr %10, align 8
  %11 = trunc i32 %4 to i8
  %12 = getelementptr inbounds i8, ptr %1, i64 220
  store i8 %11, ptr %12, align 4
  %13 = getelementptr inbounds i8, ptr %1, i64 8
  %14 = load i32, ptr %13, align 8
  %15 = or i32 %14, 256
  store i32 %15, ptr %13, align 8
  br label %16

16:                                               ; preds = %5, %8
  ret void
}